target datalayout = "e-m:e-p270:32:32-p271:32:32-p272:64:64-i64:64-i128:128-f80:128-n8:16:32:64-S128"
target triple = "x86_64-unknown-linux-gnu"

@.str = private unnamed_addr constant [2 x i8] c"B\00", align 1
@.str.1 = private unnamed_addr constant [3 x i8] c"kB\00", align 1
@.str.2 = private unnamed_addr constant [3 x i8] c"MB\00", align 1
@.str.3 = private unnamed_addr constant [3 x i8] c"GB\00", align 1
@.str.4 = private unnamed_addr constant [3 x i8] c"TB\00", align 1
@.str.5 = private unnamed_addr constant [3 x i8] c"PB\00", align 1

; Function Attrs: mustprogress nounwind uwtable
define linkonce_odr noundef zeroext i1 @_ZSteqIcSt11char_traitsIcESaIcEEbRKNSt7__cxx1112basic_stringIT_T0_T1_EEPKS5_(ptr noundef nonnull align 8 dereferenceable(32) %__lhs, ptr noundef %__rhs) #0 comdat {
entry:
  %__lhs.addr = alloca ptr, align 8
  %__rhs.addr = alloca ptr, align 8
  store ptr %__lhs, ptr %__lhs.addr, align 8
  store ptr %__rhs, ptr %__rhs.addr, align 8
  %0 = load ptr, ptr %__lhs.addr, align 8
  %1 = load ptr, ptr %__rhs.addr, align 8
  %call = call noundef i32 @_ZNKSt7__cxx1112basic_stringIcSt11char_traitsIcESaIcEE7compareEPKc(ptr noundef nonnull align 8 dereferenceable(32) %0, ptr noundef %1) #4
  %cmp = icmp eq i32 %call, 0
  ret i1 %cmp
}

; Function Attrs: mustprogress uwtable
define noundef i32 @_ZN8facebook5velox4core19valueOfCapacityUnitERKNSt7__cxx1112basic_stringIcSt11char_traitsIcESaIcEEE(ptr noundef nonnull align 8 dereferenceable(32) %unitStr) #3 {
entry:
  %retval = alloca i32, align 4
  %unitStr.addr = alloca ptr, align 8
  store ptr %unitStr, ptr %unitStr.addr, align 8
  %0 = load ptr, ptr %unitStr.addr, align 8
  %call = call noundef zeroext i1 @_ZSteqIcSt11char_traitsIcESaIcEEbRKNSt7__cxx1112basic_stringIT_T0_T1_EEPKS5_(ptr noundef nonnull align 8 dereferenceable(32) %0, ptr noundef @.str)
  br i1 %call, label %if.then, label %if.end

if.then:                                          ; preds = %entry
  store i32 0, ptr %retval, align 4
  br label %return

if.end:                                           ; preds = %entry
  %1 = load ptr, ptr %unitStr.addr, align 8
  %call1 = call noundef zeroext i1 @_ZSteqIcSt11char_traitsIcESaIcEEbRKNSt7__cxx1112basic_stringIT_T0_T1_EEPKS5_(ptr noundef nonnull align 8 dereferenceable(32) %1, ptr noundef @.str.1)
  br i1 %call1, label %if.then2, label %if.end3

if.then2:                                         ; preds = %if.end
  store i32 1, ptr %retval, align 4
  br label %return

if.end3:                                          ; preds = %if.end
  %2 = load ptr, ptr %unitStr.addr, align 8
  %call4 = call noundef zeroext i1 @_ZSteqIcSt11char_traitsIcESaIcEEbRKNSt7__cxx1112basic_stringIT_T0_T1_EEPKS5_(ptr noundef nonnull align 8 dereferenceable(32) %2, ptr noundef @.str.2)
  br i1 %call4, label %if.then5, label %if.end6

if.then5:                                         ; preds = %if.end3
  store i32 2, ptr %retval, align 4
  br label %return

if.end6:                                          ; preds = %if.end3
  %3 = load ptr, ptr %unitStr.addr, align 8
  %call7 = call noundef zeroext i1 @_ZSteqIcSt11char_traitsIcESaIcEEbRKNSt7__cxx1112basic_stringIT_T0_T1_EEPKS5_(ptr noundef nonnull align 8 dereferenceable(32) %3, ptr noundef @.str.3)
  br i1 %call7, label %if.then8, label %if.end9

if.then8:                                         ; preds = %if.end6
  store i32 3, ptr %retval, align 4
  br label %return

if.end9:                                          ; preds = %if.end6
  %4 = load ptr, ptr %unitStr.addr, align 8
  %call10 = call noundef zeroext i1 @_ZSteqIcSt11char_traitsIcESaIcEEbRKNSt7__cxx1112basic_stringIT_T0_T1_EEPKS5_(ptr noundef nonnull align 8 dereferenceable(32) %4, ptr noundef @.str.4)
  br i1 %call10, label %if.then11, label %if.end12

if.then11:                                        ; preds = %if.end9
  store i32 4, ptr %retval, align 4
  br label %return

if.end12:                                         ; preds = %if.end9
  %5 = load ptr, ptr %unitStr.addr, align 8
  %call13 = call noundef zeroext i1 @_ZSteqIcSt11char_traitsIcESaIcEEbRKNSt7__cxx1112basic_stringIT_T0_T1_EEPKS5_(ptr noundef nonnull align 8 dereferenceable(32) %5, ptr noundef @.str.5)
  br i1 %call13, label %if.then14, label %if.end15

if.then14:                                        ; preds = %if.end12
  store i32 5, ptr %retval, align 4
  br label %return

if.end15:                                         ; preds = %if.end12
  call void @llvm.trap()
  call void @llvm.trap()
  unreachable

return:                                           ; preds = %if.then14, %if.then11, %if.then8, %if.then5, %if.then2, %if.then
  %6 = load i32, ptr %retval, align 4
  ret i32 %6
}